; Function Attrs: nounwind sspstrong uwtable
define dso_local range(i64 -14, 2147483648) i64 @target_strlen(i64 noundef %guest_addr1) local_unnamed_addr #0 {
entry:
  br label %for.cond

for.cond:                                         ; preds = %if.end8, %entry
  %guest_addr.0 = phi i64 [ %guest_addr1, %entry ], [ %add, %if.end8 ]
  %and = and i64 %guest_addr.0, 4095
  %sub.neg16 = or i64 %guest_addr.0, -4096
  %sub = sub nuw nsw i64 4096, %and
  %sub.i.i.i = xor i64 %and, 4095
  %0 = load i64, ptr @reserved_va, align 8
  %tobool.not.i5.i.i = icmp eq i64 %0, 0
  %..i.i.i = select i1 %tobool.not.i5.i.i, i64 -1, i64 %0
  %cmp.not.i.i.i = icmp ule i64 %sub.i.i.i, %..i.i.i
  %reass.sub.i = add nsw i64 %sub.neg16, 1
  %add.i.i.i = add i64 %reass.sub.i, %..i.i.i
  %cmp7.i.i.i = icmp ule i64 %guest_addr.0, %add.i.i.i
  %1 = and i1 %cmp.not.i.i.i, %cmp7.i.i.i
  br i1 %1, label %access_ok_untagged.exit.i, label %return

access_ok_untagged.exit.i:                        ; preds = %for.cond
  %call2.i.i = tail call zeroext i1 @page_check_range(i64 noundef %guest_addr.0, i64 noundef %sub, i32 noundef 1) #3
  br i1 %call2.i.i, label %lock_user.exit, label %return

lock_user.exit:                                   ; preds = %access_ok_untagged.exit.i
  %2 = load i64, ptr @guest_base, align 8
  %add.i.i = add i64 %2, %guest_addr.0
  %tobool.not = icmp eq i64 %add.i.i, 0
  br i1 %tobool.not, label %return, label %if.end

if.end:                                           ; preds = %lock_user.exit
  %3 = inttoptr i64 %add.i.i to ptr
  %conv = trunc nuw nsw i64 %sub to i32
  %call1 = tail call i32 @qemu_strnlen(ptr noundef nonnull %3, i32 noundef %conv) #3
  %conv2 = sext i32 %call1 to i64
  %add = add i64 %guest_addr.0, %conv2
  %cmp = icmp eq i64 %add, 0
  br i1 %cmp, label %return, label %lor.lhs.false

lor.lhs.false:                                    ; preds = %if.end
  %sub4 = sub i64 %add, %guest_addr1
  %cmp5 = icmp ugt i64 %sub4, 2147483647
  br i1 %cmp5, label %return, label %if.end8

if.end8:                                          ; preds = %lor.lhs.false
  %cmp9.not = icmp eq i64 %sub, %conv2
  br i1 %cmp9.not, label %for.cond, label %return

return:                                           ; preds = %for.cond, %access_ok_untagged.exit.i, %if.end8, %if.end, %lor.lhs.false, %lock_user.exit
  %retval.0 = phi i64 [ -14, %lock_user.exit ], [ -14, %lor.lhs.false ], [ -14, %if.end ], [ %sub4, %if.end8 ], [ -14, %access_ok_untagged.exit.i ], [ -14, %for.cond ]
  ret i64 %retval.0
}